target datalayout = "e-m:e-p270:32:32-p271:32:32-p272:64:64-i64:64-i128:128-f80:128-n8:16:32:64-S128"
target triple = "x86_64-pc-linux-gnu"

%struct.newhope_poly_st = type { [1024 x i16] }
%struct.sha256_state_st = type { [8 x i32], i32, i32, [64 x i8], i32, i32 }

; Function Attrs: nounwind uwtable
define internal void @encode_rec(ptr noundef %0, ptr noundef %1) #0 {
  %3 = alloca ptr, align 8
  %4 = alloca ptr, align 8
  %5 = alloca i32, align 4
  store ptr %0, ptr %3, align 8, !tbaa !6
  store ptr %1, ptr %4, align 8, !tbaa !11
  call void @llvm.lifetime.start.p0(i64 4, ptr %5) #6
  store i32 0, ptr %5, align 4, !tbaa !15
  br label %6

6:                                                ; preds = %56, %2
  %7 = load i32, ptr %5, align 4, !tbaa !15
  %8 = icmp slt i32 %7, 256
  br i1 %8, label %9, label %59

9:                                                ; preds = %6
  %10 = load ptr, ptr %3, align 8, !tbaa !6
  %11 = getelementptr inbounds nuw %struct.newhope_poly_st, ptr %10, i32 0, i32 0
  %12 = load i32, ptr %5, align 4, !tbaa !15
  %13 = mul nsw i32 4, %12
  %14 = sext i32 %13 to i64
  %15 = getelementptr inbounds [1024 x i16], ptr %11, i64 0, i64 %14
  %16 = load i16, ptr %15, align 2, !tbaa !17
  %17 = zext i16 %16 to i32
  %18 = load ptr, ptr %3, align 8, !tbaa !6
  %19 = getelementptr inbounds nuw %struct.newhope_poly_st, ptr %18, i32 0, i32 0
  %20 = load i32, ptr %5, align 4, !tbaa !15
  %21 = mul nsw i32 4, %20
  %22 = add nsw i32 %21, 1
  %23 = sext i32 %22 to i64
  %24 = getelementptr inbounds [1024 x i16], ptr %19, i64 0, i64 %23
  %25 = load i16, ptr %24, align 2, !tbaa !17
  %26 = zext i16 %25 to i32
  %27 = shl i32 %26, 2
  %28 = or i32 %17, %27
  %29 = load ptr, ptr %3, align 8, !tbaa !6
  %30 = getelementptr inbounds nuw %struct.newhope_poly_st, ptr %29, i32 0, i32 0
  %31 = load i32, ptr %5, align 4, !tbaa !15
  %32 = mul nsw i32 4, %31
  %33 = add nsw i32 %32, 2
  %34 = sext i32 %33 to i64
  %35 = getelementptr inbounds [1024 x i16], ptr %30, i64 0, i64 %34
  %36 = load i16, ptr %35, align 2, !tbaa !17
  %37 = zext i16 %36 to i32
  %38 = shl i32 %37, 4
  %39 = or i32 %28, %38
  %40 = load ptr, ptr %3, align 8, !tbaa !6
  %41 = getelementptr inbounds nuw %struct.newhope_poly_st, ptr %40, i32 0, i32 0
  %42 = load i32, ptr %5, align 4, !tbaa !15
  %43 = mul nsw i32 4, %42
  %44 = add nsw i32 %43, 3
  %45 = sext i32 %44 to i64
  %46 = getelementptr inbounds [1024 x i16], ptr %41, i64 0, i64 %45
  %47 = load i16, ptr %46, align 2, !tbaa !17
  %48 = zext i16 %47 to i32
  %49 = shl i32 %48, 6
  %50 = or i32 %39, %49
  %51 = trunc i32 %50 to i8
  %52 = load ptr, ptr %4, align 8, !tbaa !11
  %53 = load i32, ptr %5, align 4, !tbaa !15
  %54 = sext i32 %53 to i64
  %55 = getelementptr inbounds i8, ptr %52, i64 %54
  store i8 %51, ptr %55, align 1, !tbaa !19
  br label %56

56:                                               ; preds = %9
  %57 = load i32, ptr %5, align 4, !tbaa !15
  %58 = add nsw i32 %57, 1
  store i32 %58, ptr %5, align 4, !tbaa !15
  br label %6, !llvm.loop !20

59:                                               ; preds = %6
  call void @llvm.lifetime.end.p0(i64 4, ptr %5) #6
  ret void
}

; Function Attrs: nounwind uwtable
define hidden i32 @NEWHOPE_client_compute_key(ptr noundef %0, ptr noundef %1, ptr noundef %2, i64 noundef %3) #0 {
  %5 = alloca i32, align 4
  %6 = alloca ptr, align 8
  %7 = alloca ptr, align 8
  %8 = alloca ptr, align 8
  %9 = alloca i64, align 8
  %10 = alloca %struct.newhope_poly_st, align 32
  %11 = alloca %struct.newhope_poly_st, align 32
  %12 = alloca %struct.newhope_poly_st, align 32
  %13 = alloca ptr, align 8
  %14 = alloca %struct.newhope_poly_st, align 32
  %15 = alloca %struct.newhope_poly_st, align 32
  %16 = alloca %struct.newhope_poly_st, align 32
  %17 = alloca %struct.newhope_poly_st, align 32
  %18 = alloca %struct.newhope_poly_st, align 32
  %19 = alloca ptr, align 8
  %20 = alloca [32 x i8], align 16
  %21 = alloca %struct.sha256_state_st, align 4
  %22 = alloca i32, align 4
  store ptr %0, ptr %6, align 8, !tbaa !11
  store ptr %1, ptr %7, align 8, !tbaa !11
  store ptr %2, ptr %8, align 8, !tbaa !11
  store i64 %3, ptr %9, align 8, !tbaa !13
  %23 = load i64, ptr %9, align 8, !tbaa !13
  %24 = icmp ne i64 %23, 1824
  br i1 %24, label %25, label %26

25:                                               ; preds = %4
  store i32 0, ptr %5, align 4
  br label %49

26:                                               ; preds = %4
  call void @llvm.lifetime.start.p0(i64 2048, ptr %10) #6
  call void @newhope_poly_getnoise(ptr noundef %10)
  call void @newhope_poly_ntt(ptr noundef %10)
  call void @llvm.lifetime.start.p0(i64 2048, ptr %11) #6
  call void @newhope_poly_getnoise(ptr noundef %11)
  call void @newhope_poly_ntt(ptr noundef %11)
  call void @llvm.lifetime.start.p0(i64 2048, ptr %12) #6
  call void @llvm.lifetime.start.p0(i64 8, ptr %13) #6
  %27 = load ptr, ptr %8, align 8, !tbaa !11
  %28 = getelementptr inbounds i8, ptr %27, i64 1792
  store ptr %28, ptr %13, align 8, !tbaa !11
  %29 = load ptr, ptr %13, align 8, !tbaa !11
  call void @newhope_poly_uniform(ptr noundef %12, ptr noundef %29)
  call void @llvm.lifetime.start.p0(i64 2048, ptr %14) #6
  call void @newhope_poly_pointwise(ptr noundef %14, ptr noundef %12, ptr noundef %10)
  call void @newhope_poly_add(ptr noundef %14, ptr noundef %14, ptr noundef %11)
  %30 = load ptr, ptr %7, align 8, !tbaa !11
  call void @newhope_poly_tobytes(ptr noundef %30, ptr noundef %14)
  call void @llvm.lifetime.end.p0(i64 2048, ptr %14) #6
  call void @llvm.lifetime.end.p0(i64 8, ptr %13) #6
  call void @llvm.lifetime.end.p0(i64 2048, ptr %12) #6
  call void @llvm.lifetime.end.p0(i64 2048, ptr %11) #6
  call void @llvm.lifetime.start.p0(i64 2048, ptr %15) #6
  call void @llvm.lifetime.start.p0(i64 2048, ptr %16) #6
  %31 = load ptr, ptr %8, align 8, !tbaa !11
  call void @newhope_poly_frombytes(ptr noundef %16, ptr noundef %31)
  call void @llvm.lifetime.start.p0(i64 2048, ptr %17) #6
  call void @newhope_poly_getnoise(ptr noundef %17)
  call void @newhope_poly_pointwise(ptr noundef %15, ptr noundef %16, ptr noundef %10)
  call void @newhope_poly_invntt(ptr noundef %15)
  call void @newhope_poly_add(ptr noundef %15, ptr noundef %15, ptr noundef %17)
  call void @llvm.lifetime.end.p0(i64 2048, ptr %17) #6
  call void @llvm.lifetime.end.p0(i64 2048, ptr %16) #6
  call void @llvm.lifetime.start.p0(i64 2048, ptr %18) #6
  call void @llvm.lifetime.start.p0(i64 8, ptr %19) #6
  %32 = load ptr, ptr %7, align 8, !tbaa !11
  %33 = getelementptr inbounds i8, ptr %32, i64 1792
  store ptr %33, ptr %19, align 8, !tbaa !11
  call void @newhope_helprec(ptr noundef %18, ptr noundef %15)
  %34 = load ptr, ptr %19, align 8, !tbaa !11
  call void @encode_rec(ptr noundef %18, ptr noundef %34)
  call void @llvm.lifetime.start.p0(i64 32, ptr %20) #6
  %35 = getelementptr inbounds [32 x i8], ptr %20, i64 0, i64 0
  call void @newhope_reconcile(ptr noundef %35, ptr noundef %15, ptr noundef %18)
  call void @llvm.lifetime.start.p0(i64 112, ptr %21) #6
  %36 = call i32 @SHA256_Init(ptr noundef %21)
  %37 = icmp ne i32 %36, 0
  br i1 %37, label %38, label %46

38:                                               ; preds = %26
  %39 = getelementptr inbounds [32 x i8], ptr %20, i64 0, i64 0
  %40 = call i32 @SHA256_Update(ptr noundef %21, ptr noundef %39, i64 noundef 32)
  %41 = icmp ne i32 %40, 0
  br i1 %41, label %42, label %46

42:                                               ; preds = %38
  %43 = load ptr, ptr %6, align 8, !tbaa !11
  %44 = call i32 @SHA256_Final(ptr noundef %43, ptr noundef %21)
  %45 = icmp ne i32 %44, 0
  br i1 %45, label %47, label %46

46:                                               ; preds = %42, %38, %26
  store i32 0, ptr %5, align 4
  store i32 1, ptr %22, align 4
  br label %48

47:                                               ; preds = %42
  store i32 1, ptr %5, align 4
  store i32 1, ptr %22, align 4
  br label %48

48:                                               ; preds = %47, %46
  call void @llvm.lifetime.end.p0(i64 112, ptr %21) #6
  call void @llvm.lifetime.end.p0(i64 32, ptr %20) #6
  call void @llvm.lifetime.end.p0(i64 8, ptr %19) #6
  call void @llvm.lifetime.end.p0(i64 2048, ptr %18) #6
  call void @llvm.lifetime.end.p0(i64 2048, ptr %15) #6
  call void @llvm.lifetime.end.p0(i64 2048, ptr %10) #6
  br label %49

49:                                               ; preds = %48, %25
  %50 = load i32, ptr %5, align 4
  ret i32 %50
}