; Function Attrs: nounwind uwtable
define hidden range(i32 0, 2) i32 @NEWHOPE_client_compute_key(ptr noundef %0, ptr noundef %1, ptr noundef %2, i64 noundef %3) local_unnamed_addr #4 {
  %5 = alloca %struct.newhope_poly_st, align 32
  %6 = alloca %struct.newhope_poly_st, align 32
  %7 = alloca %struct.newhope_poly_st, align 32
  %8 = alloca %struct.newhope_poly_st, align 32
  %9 = alloca %struct.newhope_poly_st, align 32
  %10 = alloca %struct.newhope_poly_st, align 32
  %11 = alloca %struct.newhope_poly_st, align 32
  %12 = alloca %struct.newhope_poly_st, align 32
  %13 = alloca [32 x i8], align 16
  %14 = alloca %struct.sha256_state_st, align 4
  %.not = icmp eq i64 %3, 1824
  br i1 %.not, label %15, label %48

15:                                               ; preds = %4
  call void @llvm.lifetime.start.p0(i64 2048, ptr nonnull %5) #8
  call void @newhope_poly_getnoise(ptr noundef nonnull %5) #8
  call void @newhope_poly_ntt(ptr noundef nonnull %5) #8
  call void @llvm.lifetime.start.p0(i64 2048, ptr nonnull %6) #8
  call void @newhope_poly_getnoise(ptr noundef nonnull %6) #8
  call void @newhope_poly_ntt(ptr noundef nonnull %6) #8
  call void @llvm.lifetime.start.p0(i64 2048, ptr nonnull %7) #8
  %16 = getelementptr inbounds nuw i8, ptr %2, i64 1792
  call void @newhope_poly_uniform(ptr noundef nonnull %7, ptr noundef nonnull %16) #8
  call void @llvm.lifetime.start.p0(i64 2048, ptr nonnull %8) #8
  call void @newhope_poly_pointwise(ptr noundef nonnull %8, ptr noundef nonnull %7, ptr noundef nonnull %5) #8
  call void @newhope_poly_add(ptr noundef nonnull %8, ptr noundef nonnull %8, ptr noundef nonnull %6) #8
  call void @newhope_poly_tobytes(ptr noundef %1, ptr noundef nonnull %8) #8
  call void @llvm.lifetime.end.p0(i64 2048, ptr nonnull %8) #8
  call void @llvm.lifetime.end.p0(i64 2048, ptr nonnull %7) #8
  call void @llvm.lifetime.end.p0(i64 2048, ptr nonnull %6) #8
  call void @llvm.lifetime.start.p0(i64 2048, ptr nonnull %9) #8
  call void @llvm.lifetime.start.p0(i64 2048, ptr nonnull %10) #8
  call void @newhope_poly_frombytes(ptr noundef nonnull %10, ptr noundef %2) #8
  call void @llvm.lifetime.start.p0(i64 2048, ptr nonnull %11) #8
  call void @newhope_poly_getnoise(ptr noundef nonnull %11) #8
  call void @newhope_poly_pointwise(ptr noundef nonnull %9, ptr noundef nonnull %10, ptr noundef nonnull %5) #8
  call void @newhope_poly_invntt(ptr noundef nonnull %9) #8
  call void @newhope_poly_add(ptr noundef nonnull %9, ptr noundef nonnull %9, ptr noundef nonnull %11) #8
  call void @llvm.lifetime.end.p0(i64 2048, ptr nonnull %11) #8
  call void @llvm.lifetime.end.p0(i64 2048, ptr nonnull %10) #8
  call void @llvm.lifetime.start.p0(i64 2048, ptr nonnull %12) #8
  %17 = getelementptr inbounds nuw i8, ptr %1, i64 1792
  call void @newhope_helprec(ptr noundef nonnull %12, ptr noundef nonnull %9) #8
  br label %18

18:                                               ; preds = %18, %15
  %indvars.iv.i = phi i64 [ 0, %15 ], [ %indvars.iv.next.i, %18 ]
  %19 = shl nuw nsw i64 %indvars.iv.i, 2
  %20 = getelementptr inbounds nuw [1024 x i16], ptr %12, i64 0, i64 %19
  %21 = load i16, ptr %20, align 8, !tbaa !6
  %22 = trunc i16 %21 to i8
  %23 = or disjoint i64 %19, 1
  %24 = getelementptr inbounds nuw [1024 x i16], ptr %12, i64 0, i64 %23
  %25 = load i16, ptr %24, align 2, !tbaa !6
  %26 = trunc i16 %25 to i8
  %27 = shl i8 %26, 2
  %28 = or i8 %27, %22
  %29 = or disjoint i64 %19, 2
  %30 = getelementptr inbounds nuw [1024 x i16], ptr %12, i64 0, i64 %29
  %31 = load i16, ptr %30, align 4, !tbaa !6
  %32 = trunc i16 %31 to i8
  %33 = shl i8 %32, 4
  %34 = or i8 %28, %33
  %35 = or disjoint i64 %19, 3
  %36 = getelementptr inbounds nuw [1024 x i16], ptr %12, i64 0, i64 %35
  %37 = load i16, ptr %36, align 2, !tbaa !6
  %38 = trunc i16 %37 to i8
  %39 = shl i8 %38, 6
  %40 = or i8 %34, %39
  %41 = getelementptr inbounds nuw i8, ptr %17, i64 %indvars.iv.i
  store i8 %40, ptr %41, align 1, !tbaa !10
  %indvars.iv.next.i = add nuw nsw i64 %indvars.iv.i, 1
  %exitcond.not.i = icmp eq i64 %indvars.iv.next.i, 256
  br i1 %exitcond.not.i, label %encode_rec.exit, label %18, !llvm.loop !11

encode_rec.exit:                                  ; preds = %18
  call void @llvm.lifetime.start.p0(i64 32, ptr nonnull %13) #8
  call void @newhope_reconcile(ptr noundef nonnull %13, ptr noundef nonnull %9, ptr noundef nonnull %12) #8
  call void @llvm.lifetime.start.p0(i64 112, ptr nonnull %14) #8
  %42 = call i32 @SHA256_Init(ptr noundef nonnull %14) #8
  %.not8 = icmp eq i32 %42, 0
  br i1 %.not8, label %47, label %43

43:                                               ; preds = %encode_rec.exit
  %44 = call i32 @SHA256_Update(ptr noundef nonnull %14, ptr noundef nonnull %13, i64 noundef 32) #8
  %.not9 = icmp eq i32 %44, 0
  br i1 %.not9, label %47, label %45

45:                                               ; preds = %43
  %46 = call i32 @SHA256_Final(ptr noundef %0, ptr noundef nonnull %14) #8
  %.not10 = icmp ne i32 %46, 0
  %spec.select = zext i1 %.not10 to i32
  br label %47

47:                                               ; preds = %45, %encode_rec.exit, %43
  %.1 = phi i32 [ 0, %43 ], [ 0, %encode_rec.exit ], [ %spec.select, %45 ]
  call void @llvm.lifetime.end.p0(i64 112, ptr nonnull %14) #8
  call void @llvm.lifetime.end.p0(i64 32, ptr nonnull %13) #8
  call void @llvm.lifetime.end.p0(i64 2048, ptr nonnull %12) #8
  call void @llvm.lifetime.end.p0(i64 2048, ptr nonnull %9) #8
  call void @llvm.lifetime.end.p0(i64 2048, ptr nonnull %5) #8
  br label %48

48:                                               ; preds = %4, %47
  %.0 = phi i32 [ %.1, %47 ], [ 0, %4 ]
  ret i32 %.0
}